(lp0
F0.15264920666666668
aF0.10181824416666665
aF0.15220695291666664
aF0.15300843583333332
aF0.044676396666666666
aF0.045072506666666665
aF0.04511124833333333
aF0.07414645833333333
aF0.13909816916666665
aF0.19901521333333333
aF0.19922458625
aF0.19940618
aF0.4098954979166667
aF0.39825600083333335
aF0.49072236375
aF0.34946128583333336
aF0.091221435
aF0.17780265
aF0.09121944666666666
aF0.09121329833333333
aF0.17781613666666665
aF0.13107705166666667
aF0.1778154925
aF0.09120509083333332
aF0.00090828375
aF0.0006712212499999999
aF0.000669735
aF0.0009078045833333334
aF0.0006590679166666667
aF0.0006576425
aF0.0007904016666666666
aF0.0006579166666666667
a.