(lp0
F1734729887.3911047
aF3391185243.1103544
aF3386604844.2340117
aF2339308981.1626444
aF2356135608.966538
aF3768726637.900134
aF3699375682.1741405
aF2164137201.7242374
aF1894823924.3089807
aF2325737271.619794
aF2276805779.113861
aF1444306238.6467257
aF1068248842.5958871
aF1656155599.346581
aF1654452602.044798
aF1444420836.5361383
aF1734719789.296329
aF3391126137.884516
aF3388844263.4993396
aF2339290390.4752555
aF2356327627.0696974
aF3778612261.180433
aF3698712498.222528
aF2163854143.7142296
aF1894260606.7491367
aF2323427658.407912
aF2276451479.340914
aF1444289128.30502
aF1067655792.4780657
aF1905350501.446965
aF1667218674.5699532
aF1653935293.7303836
a.