(lp0
(lp1
F67.1406839128209
aF67.02979499328622
aF41.373376246129006
aI0
aI0
aa(lp2
F67.22259012433484
aF66.96773880078193
aF41.357656623234654
aF41.159187340858324
aI0
aa(lp3
F67.2292260346138
aF67.10651263818919
aF41.36489873266835
aF41.16077033112419
aI0
aa(lp4
F67.20228591883387
aF67.02946296356733
aF41.37036290983803
aF41.16630023393075
aI0
aa(lp5
F43.33249869632895
aF43.183557473308866
aF37.01543093921892
aF36.95415808242925
aI0
aa(lp6
F43.332498875029955
aF43.183557473308866
aF37.01543120314872
aF36.954263185964464
aI0
aa(lp7
F43.332498783393255
aF43.183557562895025
aF37.01543093921892
aF36.95415803058437
aI0
aa(lp8
F43.33249869632895
aF43.183557740141566
aF37.01543093921892
aF36.95415803058437
aI0
aa(lp9
F74.40723282794255
aF74.34191147517056
aF42.19652889730095
aF41.918668852835545
aI0
aa(lp10
F74.41496778274028
aF74.11034792795292
aF42.24738999671255
aF41.90829288338617
aI0
aa(lp11
F74.31396191554174
aF74.31425946466928
aF42.18782893911336
aF41.91504105292775
aI0
aa(lp12
F74.29407559203742
aF74.38941519336717
aF42.2253637908482
aF41.91236319468277
aI0
aa(lp13
F69.8896747545761
aF69.76323091697533
aF40.9518854921574
aF40.80908103714056
aI0
aa(lp14
F69.9151576874163
aF69.7892210082493
aF40.95215351249079
aF40.807931517880476
aI0
aa(lp15
F73.95010639036494
aF73.91033652511162
aF40.866646257802856
aF40.68732937439816
aI0
aa(lp16
F73.991925365069
aF73.86090628870959
aF40.86289575587646
aF40.694445619894154
aI0
aa(lp17
F79.24021712504378
aF79.09256394021523
aF45.37650877188979
aF41.53686407958118
aI0
aa(lp18
F79.24073788288312
aF79.09032417965483
aF45.37645486017947
aF41.536899067323944
aI0
aa(lp19
F79.23961905381906
aF79.09359192522793
aF45.37648771707463
aF41.53687695443939
aI0
aa(lp20
F79.23993771169461
aF79.09035902797997
aF45.37642642718308
aF41.536873453595994
aI0
aa(lp21
F72.83724652520473
aF72.67675508149149
aF44.13361429991307
aF40.92785561595934
aI0
aa(lp22
F72.83713323788766
aF72.67773459071479
aF44.133607492402284
aF40.927856505042
aI0
aa(lp23
F72.83797741219394
aF72.6774596533957
aF44.13363234744682
aF40.92785892345769
aI0
aa(lp24
F72.83786912458275
aF72.67735168028979
aF44.13360086412261
aF40.927863359368686
aI0
aa(lp25
F45.823227340215226
aF45.6852668139489
aF37.75194000929115
aF37.35495784583964
aI0
aa(lp26
F45.823375491219096
aF45.604276044501745
aF37.75220364023062
aF37.34985103381333
aI0
aa(lp27
F45.823276443994835
aF45.671055651217806
aF37.74667931930969
aF37.351219173130666
aI0
aa(lp28
F45.82242349852078
aF45.673671142321545
aF37.76139380748103
aF37.35147958803555
aI0
aa(lp29
F41.79692436418976
aF41.66079526251616
aF36.68902335090999
aF36.52382468482564
aI0
aa(lp30
F41.79691217510528
aF41.66079526251616
aF36.68902335090999
aF36.52382468482564
aI0
aa(lp31
F41.79692436418976
aF41.66079526251616
aF36.68902335090999
aF36.52381617184451
aI0
aa(lp32
F41.79691222704
aF41.66079526251616
aF36.68902335090999
aF36.52381617184451
aI0
aa.