(lp0
(lp1
F48.2897384306
aF48.2121333869
aF25.9655955858
aI0
aI0
aa(lp2
F48.231511254
aF48.2121333869
aF25.9796492747
aF25.1598700073
aI0
aa(lp3
F48.2897384306
aF48.1734243276
aF25.9712152364
aF25.1545959543
aI0
aa(lp4
F48.28002414
aF48.2509047045
aF25.974025974
aF25.1519597569
aI0
aa(lp5
F23.3576642336
aF23.3145521663
aF14.0391927464
aF13.733119707
aI0
aa(lp6
F23.3576642336
aF23.3145521663
aF14.0391927464
aF13.7339055794
aI0
aa(lp7
F23.3576642336
aF23.3145521663
aF14.0391927464
aF13.733119707
aI0
aa(lp8
F23.3576642336
aF23.3145521663
aF14.0391927464
aF13.733119707
aI0
aa(lp9
F43.8596491228
aF43.7556973564
aF22.2181077578
aF21.5788527243
aI0
aa(lp10
F43.8116100767
aF43.7716578515
aF22.1914008322
aF21.5749730313
aI0
aa(lp11
F43.8596491228
aF43.7317784257
aF22.2160510969
aF21.5749730313
aI0
aa(lp12
F43.8436244063
aF43.7397484964
aF22.1996115068
aF21.5749730313
aI0
aa(lp13
F17.0769887576
aF17.0490871635
aF8.81801815042
aF8.59722023212
aI0
aa(lp14
F17.0745589072
aF17.0502983802
aF8.81769417297
aF8.59722023212
aI0
aa(lp15
F14.7992847012
aF14.7737765466
aF7.19920808711
aF7.02391056221
aI0
aa(lp16
F14.7983721791
aF14.7755956412
aF7.19834438079
aF7.02226643649
aI0
aa(lp17
F69.2640692641
aF69.244085401
aF40.3632694248
aF23.8544876255
aI0
aa(lp18
F69.2640692641
aF69.244085401
aF40.3632694248
aF23.8544876255
aI0
aa(lp19
F69.2640692641
aF69.244085401
aF40.3632694248
aF23.8544876255
aI0
aa(lp20
F69.2640692641
aF69.244085401
aF40.3632694248
aF23.8544876255
aI0
aa(lp21
F59.1570125709
aF59.1133004926
aF35.4295837024
aF21.5924426451
aI0
aa(lp22
F59.1570125709
aF59.1133004926
aF35.4295837024
aF21.5924426451
aI0
aa(lp23
F59.1570125709
aF59.1133004926
aF35.4295837024
aF21.5924426451
aI0
aa(lp24
F59.1570125709
aF59.1133004926
aF35.4295837024
aF21.5924426451
aI0
aa(lp25
F2580.64516129
aF2580.64516129
aF2123.89380531
aF1777.77777778
aI0
aa(lp26
F2580.64516129
aF2553.19148936
aF2123.89380531
aF1777.77777778
aI0
aa(lp27
F2580.64516129
aF2580.64516129
aF2123.89380531
aF1777.77777778
aI0
aa(lp28
F2580.64516129
aF2580.64516129
aF2123.89380531
aF1777.77777778
aI0
aa(lp29
F1600.0
aF1600.0
aF1276.59574468
aF1132.0754717
aI0
aa(lp30
F1600.0
aF1600.0
aF1276.59574468
aF1132.0754717
aI0
aa(lp31
F1600.0
aF1600.0
aF1276.59574468
aF1132.0754717
aI0
aa(lp32
F1600.0
aF1600.0
aF1276.59574468
aF1132.0754717
aI0
aa.