(lp0
(lp1
F69.2640692641
aF69.244085401
aF40.3632694248
aF23.8853503185
aa(lp2
F17.6146788991
aF17.6146788991
aF10.1772538377
aF6.01337976999
aa(lp3
F4.42363696686
aF4.42355543268
aF2.54836586039
aF1.50016876899
aa(lp4
F4.42363696686
aF4.42355543268
aF2.54836586039
aF1.50016876899
aa(lp5
F92.1305182342
aF76.726342711
aF60.5449041372
aF92.0598388953
aa(lp6
F92.1305182342
aF76.726342711
aF60.5449041372
aF92.0598388953
aa(lp7
F81.2732814087
aF81.0263335584
aF45.1722190853
aF44.0933308837
aa(lp8
F10.7052054061
aF10.7009095773
aF6.29739445305
aF6.1919504644
aa(lp9
F7.27382936809
aF7.26216412491
aF3.5210751016
aF3.43918376705
aa(lp10
F4.72403747736
aF4.7197640118
aF2.31942323676
aF2.24506786653
aa(lp11
F3.27158221895
aF3.26886406974
aF1.68920107827
aF1.65503544534
aa(lp12
F1153.84615385
aF1142.85714286
aF869.565217391
aF733.944954128
aa(lp13
F729.483282675
aF722.891566265
aF520.607375271
aF351.906158358
aa(lp14
F729.483282675
aF722.891566265
aF520.607375271
aF351.906158358
aa(lp15
F729.483282675
aF722.891566265
aF520.607375271
aF351.906158358
aa(lp16
F729.483282675
aF722.891566265
aF520.607375271
aF351.906158358
aa(lp17
F69.2640692641
aF69.244085401
aF40.3632694248
aF23.8853503185
aa(lp18
F17.6146788991
aF17.6146788991
aF10.1772538377
aF6.01337976999
aa(lp19
F4.42363696686
aF4.42355543268
aF2.54836586039
aF1.50016876899
aa(lp20
F4.42363696686
aF4.42355543268
aF2.54836586039
aF1.50016876899
aa(lp21
F92.1305182342
aF76.726342711
aF60.5449041372
aF92.0598388953
aa(lp22
F92.1305182342
aF76.726342711
aF60.5449041372
aF92.0598388953
aa(lp23
F81.2732814087
aF81.0263335584
aF45.1722190853
aF44.0933308837
aa(lp24
F10.7052054061
aF10.7009095773
aF6.29739445305
aF6.1919504644
aa(lp25
F7.27382936809
aF7.26216412491
aF3.5210751016
aF3.43918376705
aa(lp26
F4.72403747736
aF4.7197640118
aF2.31942323676
aF2.24506786653
aa(lp27
F3.27158221895
aF3.26886406974
aF1.68920107827
aF1.65503544534
aa(lp28
F1153.84615385
aF1142.85714286
aF869.565217391
aF733.944954128
aa(lp29
F729.483282675
aF722.891566265
aF520.607375271
aF351.906158358
aa(lp30
F1.3452236154
aF1.30930039715
aF1.09608059846
aF0.565132723775
aa(lp31
F0.605629324572
aF0.591745155087
aF0.503345147963
aF0.270475868481
aa(lp32
F0.605629324572
aF0.591745155087
aF0.503345147963
aF0.270475868481
aa.