(lp0
(lp1
F14.079332812899999
aF14.0934785858
aF7.52975794872
aF7.26496182409
aa(lp2
F14.1213994051
aF14.0624924548
aF7.51067457025
aF7.25676182409
aa(lp3
F14.1225800885
aF14.1317197431
aF7.51928365328
aF7.258701922229999
aa(lp4
F14.1098262402
aF14.091865766
aF7.526204233770001
aF7.265436596100001
aa(lp5
F3.77279345985
aF3.76582988148
aF2.26764928693
aF2.2182115220900003
aa(lp6
F3.77279345985
aF3.76582988148
aF2.26764928693
aF2.21833845837
aa(lp7
F3.77279345985
aF3.76582988148
aF2.26764928693
aF2.2182115220900003
aa(lp8
F3.77279345985
aF3.76582988148
aF2.26764928693
aF2.2182115220900003
aa(lp9
F17.2158899561
aF17.254097983599998
aF8.51305301981
aF8.16066849128
aa(lp10
F17.2219809858
aF17.1408701222
aF8.57460944244
aF8.14779503776
aa(lp11
F17.1703939912
aF17.241512580200002
aF8.50181560678
aF8.15573139159
aa(lp12
F17.1610417684
aF17.2781005139
aF8.54830925539
aF8.15240485437
aa(lp13
F13.5530106617
aF13.5584658549
aF7.01752146673
aF6.8368806276
aa(lp14
F13.5660310928
aF13.5711541858
aF7.017819966199999
aF6.835513660979999
aa(lp15
F14.0861401295
aF14.1372999446
aF6.90237260701
aF6.678306579649999
aa(lp16
F14.107180998899999
aF14.112965880700001
aF6.89802604841
aF6.68688535799
aa(lp17
F21.3636234805
aF21.3578019158
aF12.4494468214
aF7.35755996422
aa(lp18
F21.363762077900002
aF21.357404039200002
aF12.4494468214
aF7.35755996422
aa(lp19
F21.3634843983
aF21.3580264743
aF12.449446538799998
aF7.35754460193
aa(lp20
F21.3635788745
aF21.357404039200002
aF12.4494988093
aF7.35754460193
aa(lp21
F18.2439610352
aF18.2302061675
aF10.9262518335
aF6.658954148449999
aa(lp22
F18.2439386739
aF18.2304310936
aF10.926229016799999
aF6.658954148449999
aa(lp23
F18.2442229233
aF18.2304648473
aF10.9262741187
aF6.658954148449999
aa(lp24
F18.2441671383
aF18.2304644335
aF10.9262518335
aF6.65896192173
aa(lp25
F3.7687303225799997
aF3.76256774194
aF3.1061097345100004
aF2.5981564444400003
aa(lp26
F3.76871225806
aF3.7250987234
aF3.1069380531
aF2.59201777778
aa(lp27
F3.7687303225799997
aF3.75904774194
aF3.10023504425
aF2.59394666667
aa(lp28
F3.76871225806
aF3.75904774194
aF3.1165401769899996
aF2.59394666667
aa(lp29
F2.3197872
aF2.3197872
aF1.85090170213
aF1.6413656603800002
aa(lp30
F2.3197872
aF2.3197872
aF1.85090170213
aF1.6413656603800002
aa(lp31
F2.3197872
aF2.3197872
aF1.85090170213
aF1.6413656603800002
aa(lp32
F2.3197872
aF2.3197872
aF1.85090170213
aF1.6413656603800002
aa.